target datalayout = "e-m:e-p270:32:32-p271:32:32-p272:64:64-i64:64-i128:128-f80:128-n8:16:32:64-S128"
target triple = "x86_64-pc-linux-gnu"

%"class.icu_77::UObject" = type { ptr }
%"class.icu_77::Locale" = type <{ %"class.icu_77::UObject", [12 x i8], [6 x i8], [4 x i8], [2 x i8], i32, [4 x i8], ptr, [157 x i8], [3 x i8], ptr, i8, [7 x i8] }>
%"class.icu_77::LocalPointer.13" = type { %"class.icu_77::LocalPointerBase.14" }
%"class.icu_77::LocalPointerBase.14" = type { ptr }

; Function Attrs: mustprogress nounwind uwtable
define linkonce_odr void @_ZN6icu_7716LocalPointerBaseINS_25RelativeDateTimeFormatterEED2Ev(ptr noundef nonnull align 8 dereferenceable(8) %0) unnamed_addr #0 comdat align 2 {
  %2 = alloca ptr, align 8
  store ptr %0, ptr %2, align 8, !tbaa !189
  ret void
}

; Function Attrs: inlinehint mustprogress nounwind uwtable
define internal noundef signext i8 @_ZL9U_SUCCESS10UErrorCode(i32 noundef %0) #2 {
  %2 = alloca i32, align 4
  store i32 %0, ptr %2, align 4, !tbaa !15
  %3 = load i32, ptr %2, align 4, !tbaa !15
  %4 = icmp sle i32 %3, 0
  %5 = zext i1 %4 to i8
  ret i8 %5
}

; Function Attrs: mustprogress nounwind uwtable
define linkonce_odr void @_ZN6icu_7716LocalPointerBaseINS_25RelativeDateTimeFormatterEEC2EPS1_(ptr noundef nonnull align 8 dereferenceable(8) %0, ptr noundef %1) unnamed_addr #0 comdat align 2 {
  %3 = alloca ptr, align 8
  %4 = alloca ptr, align 8
  store ptr %0, ptr %3, align 8, !tbaa !189
  store ptr %1, ptr %4, align 8, !tbaa !94
  %5 = load ptr, ptr %3, align 8
  %6 = getelementptr inbounds nuw %"class.icu_77::LocalPointerBase.14", ptr %5, i32 0, i32 0
  %7 = load ptr, ptr %4, align 8, !tbaa !94
  store ptr %7, ptr %6, align 8, !tbaa !191
  ret void
}

; Function Attrs: mustprogress nounwind uwtable
define linkonce_odr noundef ptr @_ZN6icu_7716LocalPointerBaseINS_25RelativeDateTimeFormatterEE6orphanEv(ptr noundef nonnull align 8 dereferenceable(8) %0) #0 comdat align 2 {
  %2 = alloca ptr, align 8
  %3 = alloca ptr, align 8
  store ptr %0, ptr %2, align 8, !tbaa !189
  %4 = load ptr, ptr %2, align 8
  call void @llvm.lifetime.start.p0(i64 8, ptr %3) #12
  %5 = getelementptr inbounds nuw %"class.icu_77::LocalPointerBase.14", ptr %4, i32 0, i32 0
  %6 = load ptr, ptr %5, align 8, !tbaa !191
  store ptr %6, ptr %3, align 8, !tbaa !94
  %7 = getelementptr inbounds nuw %"class.icu_77::LocalPointerBase.14", ptr %4, i32 0, i32 0
  store ptr null, ptr %7, align 8, !tbaa !191
  %8 = load ptr, ptr %3, align 8, !tbaa !94
  call void @llvm.lifetime.end.p0(i64 8, ptr %3) #12
  ret ptr %8
}

; Function Attrs: mustprogress nounwind uwtable
define linkonce_odr void @_ZN6icu_7712LocalPointerINS_25RelativeDateTimeFormatterEED2Ev(ptr noundef nonnull align 8 dereferenceable(8) %0) unnamed_addr #0 comdat align 2 {
  %2 = alloca ptr, align 8
  store ptr %0, ptr %2, align 8, !tbaa !187
  %3 = load ptr, ptr %2, align 8
  %4 = getelementptr inbounds nuw %"class.icu_77::LocalPointerBase.14", ptr %3, i32 0, i32 0
  %5 = load ptr, ptr %4, align 8, !tbaa !191
  %6 = icmp eq ptr %5, null
  br i1 %6, label %11, label %7

7:                                                ; preds = %1
  %8 = load ptr, ptr %5, align 8, !tbaa !25
  %9 = getelementptr inbounds ptr, ptr %8, i64 1
  %10 = load ptr, ptr %9, align 8
  call void %10(ptr noundef nonnull align 8 dereferenceable(272) %5) #12
  br label %11

11:                                               ; preds = %7, %1
  call void @_ZN6icu_7716LocalPointerBaseINS_25RelativeDateTimeFormatterEED2Ev(ptr noundef nonnull align 8 dereferenceable(8) %3) #12
  ret void
}

; Function Attrs: mustprogress uwtable
define linkonce_odr void @_ZN6icu_7712LocalPointerINS_25RelativeDateTimeFormatterEEC2EPS1_R10UErrorCode(ptr noundef nonnull align 8 dereferenceable(8) %0, ptr noundef %1, ptr noundef nonnull align 4 dereferenceable(4) %2) unnamed_addr #1 comdat align 2 {
  %4 = alloca ptr, align 8
  %5 = alloca ptr, align 8
  %6 = alloca ptr, align 8
  store ptr %0, ptr %4, align 8, !tbaa !187
  store ptr %1, ptr %5, align 8, !tbaa !94
  store ptr %2, ptr %6, align 8, !tbaa !22
  %7 = load ptr, ptr %4, align 8
  %8 = load ptr, ptr %5, align 8, !tbaa !94
  call void @_ZN6icu_7716LocalPointerBaseINS_25RelativeDateTimeFormatterEEC2EPS1_(ptr noundef nonnull align 8 dereferenceable(8) %7, ptr noundef %8)
  %9 = load ptr, ptr %5, align 8, !tbaa !94
  %10 = icmp eq ptr %9, null
  br i1 %10, label %11, label %18

11:                                               ; preds = %3
  %12 = load ptr, ptr %6, align 8, !tbaa !22
  %13 = load i32, ptr %12, align 4, !tbaa !15
  %14 = call noundef signext i8 @_ZL9U_SUCCESS10UErrorCode(i32 noundef %13)
  %15 = icmp ne i8 %14, 0
  br i1 %15, label %16, label %18

16:                                               ; preds = %11
  %17 = load ptr, ptr %6, align 8, !tbaa !22
  store i32 7, ptr %17, align 4, !tbaa !15
  br label %18

18:                                               ; preds = %16, %11, %3
  ret void
}

; Function Attrs: inlinehint mustprogress nounwind uwtable
define internal noundef signext i8 @_ZL9U_FAILURE10UErrorCode(i32 noundef %0) #2 {
  %2 = alloca i32, align 4
  store i32 %0, ptr %2, align 4, !tbaa !15
  %3 = load i32, ptr %2, align 4, !tbaa !15
  %4 = icmp sgt i32 %3, 0
  %5 = zext i1 %4 to i8
  ret i8 %5
}

; Function Attrs: mustprogress uwtable
define ptr @ureldatefmt_open_77(ptr noundef %0, ptr noundef %1, i32 noundef %2, i32 noundef %3, ptr noundef %4) #1 personality ptr @__gxx_personality_v0 {
  %6 = alloca ptr, align 8
  %7 = alloca ptr, align 8
  %8 = alloca ptr, align 8
  %9 = alloca i32, align 4
  %10 = alloca i32, align 4
  %11 = alloca ptr, align 8
  %12 = alloca %"class.icu_77::LocalPointer.13", align 8
  %13 = alloca ptr, align 8
  %14 = alloca i1, align 1
  %15 = alloca %"class.icu_77::Locale", align 8
  %16 = alloca i1, align 1
  %17 = alloca ptr, align 8
  %18 = alloca i32, align 4
  %19 = alloca i1, align 1
  %20 = alloca i32, align 4
  store ptr %0, ptr %7, align 8, !tbaa !17
  store ptr %1, ptr %8, align 8, !tbaa !186
  store i32 %2, ptr %9, align 4, !tbaa !117
  store i32 %3, ptr %10, align 4, !tbaa !118
  store ptr %4, ptr %11, align 8, !tbaa !22
  %21 = load ptr, ptr %11, align 8, !tbaa !22
  %22 = load i32, ptr %21, align 4, !tbaa !15
  %23 = call noundef signext i8 @_ZL9U_FAILURE10UErrorCode(i32 noundef %22)
  %24 = icmp ne i8 %23, 0
  br i1 %24, label %25, label %26

25:                                               ; preds = %5
  store ptr null, ptr %6, align 8
  br label %81

26:                                               ; preds = %5
  call void @llvm.lifetime.start.p0(i64 8, ptr %12) #12
  %27 = call noundef ptr @_ZN6icu_777UMemorynwEm(i64 noundef 272) #12
  %28 = icmp eq ptr %27, null
  store i1 false, ptr %14, align 1
  store i1 false, ptr %16, align 1
  store i1 false, ptr %19, align 1
  br i1 %28, label %37, label %29

29:                                               ; preds = %26
  store ptr %27, ptr %13, align 8
  store i1 true, ptr %14, align 1
  call void @llvm.lifetime.start.p0(i64 224, ptr %15) #12
  store i1 true, ptr %16, align 1
  %30 = load ptr, ptr %7, align 8, !tbaa !17
  invoke void @_ZN6icu_776LocaleC1EPKcS2_S2_S2_(ptr noundef nonnull align 8 dereferenceable(217) %15, ptr noundef %30, ptr noundef null, ptr noundef null, ptr noundef null)
          to label %31 unwind label %53

31:                                               ; preds = %29
  store i1 true, ptr %19, align 1
  %32 = load ptr, ptr %8, align 8, !tbaa !186
  %33 = load i32, ptr %9, align 4, !tbaa !117
  %34 = load i32, ptr %10, align 4, !tbaa !118
  %35 = load ptr, ptr %11, align 8, !tbaa !22
  invoke void @_ZN6icu_7725RelativeDateTimeFormatterC1ERKNS_6LocaleEPNS_12NumberFormatE35UDateRelativeDateTimeFormatterStyle15UDisplayContextR10UErrorCode(ptr noundef nonnull align 8 dereferenceable(272) %27, ptr noundef nonnull align 8 dereferenceable(217) %15, ptr noundef %32, i32 noundef %33, i32 noundef %34, ptr noundef nonnull align 4 dereferenceable(4) %35)
          to label %36 unwind label %57

36:                                               ; preds = %31
  store i1 false, ptr %14, align 1
  br label %37

37:                                               ; preds = %36, %26
  %38 = phi ptr [ %27, %36 ], [ null, %26 ]
  %39 = load ptr, ptr %11, align 8, !tbaa !22
  invoke void @_ZN6icu_7712LocalPointerINS_25RelativeDateTimeFormatterEEC2EPS1_R10UErrorCode(ptr noundef nonnull align 8 dereferenceable(8) %12, ptr noundef %38, ptr noundef nonnull align 4 dereferenceable(4) %39)
          to label %40 unwind label %57

40:                                               ; preds = %37
  %41 = load i1, ptr %19, align 1
  br i1 %41, label %42, label %43

42:                                               ; preds = %40
  call void @_ZN6icu_776LocaleD1Ev(ptr noundef nonnull align 8 dereferenceable(217) %15) #12
  br label %43

43:                                               ; preds = %42, %40
  %44 = load i1, ptr %16, align 1
  br i1 %44, label %45, label %46

45:                                               ; preds = %43
  call void @llvm.lifetime.end.p0(i64 224, ptr %15) #12
  br label %46

46:                                               ; preds = %45, %43
  %47 = load ptr, ptr %11, align 8, !tbaa !22
  %48 = load i32, ptr %47, align 4, !tbaa !15
  %49 = invoke noundef signext i8 @_ZL9U_FAILURE10UErrorCode(i32 noundef %48)
          to label %50 unwind label %72

50:                                               ; preds = %46
  %51 = icmp ne i8 %49, 0
  br i1 %51, label %52, label %76

52:                                               ; preds = %50
  store ptr null, ptr %6, align 8
  store i32 1, ptr %20, align 4
  br label %79

53:                                               ; preds = %29
  %54 = landingpad { ptr, i32 }
          cleanup
  %55 = extractvalue { ptr, i32 } %54, 0
  store ptr %55, ptr %17, align 8
  %56 = extractvalue { ptr, i32 } %54, 1
  store i32 %56, ptr %18, align 4
  br label %64

57:                                               ; preds = %37, %31
  %58 = landingpad { ptr, i32 }
          cleanup
  %59 = extractvalue { ptr, i32 } %58, 0
  store ptr %59, ptr %17, align 8
  %60 = extractvalue { ptr, i32 } %58, 1
  store i32 %60, ptr %18, align 4
  %61 = load i1, ptr %19, align 1
  br i1 %61, label %62, label %63

62:                                               ; preds = %57
  call void @_ZN6icu_776LocaleD1Ev(ptr noundef nonnull align 8 dereferenceable(217) %15) #12
  br label %63

63:                                               ; preds = %62, %57
  br label %64

64:                                               ; preds = %63, %53
  %65 = load i1, ptr %16, align 1
  br i1 %65, label %66, label %67

66:                                               ; preds = %64
  call void @llvm.lifetime.end.p0(i64 224, ptr %15) #12
  br label %67

67:                                               ; preds = %66, %64
  %68 = load i1, ptr %14, align 1
  br i1 %68, label %69, label %71

69:                                               ; preds = %67
  %70 = load ptr, ptr %13, align 8
  call void @_ZN6icu_777UMemorydlEPv(ptr noundef %70) #12
  br label %71

71:                                               ; preds = %69, %67
  br label %80

72:                                               ; preds = %76, %46
  %73 = landingpad { ptr, i32 }
          cleanup
  %74 = extractvalue { ptr, i32 } %73, 0
  store ptr %74, ptr %17, align 8
  %75 = extractvalue { ptr, i32 } %73, 1
  store i32 %75, ptr %18, align 4
  call void @_ZN6icu_7712LocalPointerINS_25RelativeDateTimeFormatterEED2Ev(ptr noundef nonnull align 8 dereferenceable(8) %12) #12
  br label %80

76:                                               ; preds = %50
  %77 = invoke noundef ptr @_ZN6icu_7716LocalPointerBaseINS_25RelativeDateTimeFormatterEE6orphanEv(ptr noundef nonnull align 8 dereferenceable(8) %12)
          to label %78 unwind label %72

78:                                               ; preds = %76
  store ptr %77, ptr %6, align 8
  store i32 1, ptr %20, align 4
  br label %79

79:                                               ; preds = %78, %52
  call void @_ZN6icu_7712LocalPointerINS_25RelativeDateTimeFormatterEED2Ev(ptr noundef nonnull align 8 dereferenceable(8) %12) #12
  call void @llvm.lifetime.end.p0(i64 8, ptr %12) #12
  br label %81

80:                                               ; preds = %72, %71
  call void @llvm.lifetime.end.p0(i64 8, ptr %12) #12
  br label %83

81:                                               ; preds = %79, %25
  %82 = load ptr, ptr %6, align 8
  ret ptr %82

83:                                               ; preds = %80
  %84 = load ptr, ptr %17, align 8
  %85 = load i32, ptr %18, align 4
  %86 = insertvalue { ptr, i32 } poison, ptr %84, 0
  %87 = insertvalue { ptr, i32 } %86, i32 %85, 1
  resume { ptr, i32 } %87
}