; Function Attrs: mustprogress uwtable
define noundef ptr @ureldatefmt_open_77(ptr noundef %0, ptr noundef %1, i32 noundef %2, i32 noundef %3, ptr noundef %4) local_unnamed_addr #1 personality ptr @__gxx_personality_v0 {
  %6 = alloca %"class.icu_77::Locale", align 8
  %7 = load i32, ptr %4, align 4, !tbaa !13
  %8 = icmp slt i32 %7, 1
  br i1 %8, label %9, label %_ZN6icu_7712LocalPointerINS_25RelativeDateTimeFormatterEED2Ev.exit

9:                                                ; preds = %5
  %10 = tail call noundef ptr @_ZN6icu_777UMemorynwEm(i64 noundef 272) #20
  %.not = icmp eq ptr %10, null
  br i1 %.not, label %13, label %11

11:                                               ; preds = %9
  call void @llvm.lifetime.start.p0(i64 224, ptr nonnull %6) #20
  invoke void @_ZN6icu_776LocaleC1EPKcS2_S2_S2_(ptr noundef nonnull align 8 dereferenceable(217) %6, ptr noundef %0, ptr noundef null, ptr noundef null, ptr noundef null)
          to label %12 unwind label %18

12:                                               ; preds = %11
  invoke void @_ZN6icu_7725RelativeDateTimeFormatterC1ERKNS_6LocaleEPNS_12NumberFormatE35UDateRelativeDateTimeFormatterStyle15UDisplayContextR10UErrorCode(ptr noundef nonnull align 8 dereferenceable(272) %10, ptr noundef nonnull align 8 dereferenceable(217) %6, ptr noundef %1, i32 noundef %2, i32 noundef %3, ptr noundef nonnull align 4 dereferenceable(4) %4)
          to label %.critedge unwind label %20

13:                                               ; preds = %9
  %14 = load i32, ptr %4, align 4
  %15 = icmp sgt i32 %14, 0
  br i1 %15, label %_ZN6icu_7712LocalPointerINS_25RelativeDateTimeFormatterEED2Ev.exit, label %16

16:                                               ; preds = %13
  store i32 7, ptr %4, align 4, !tbaa !13
  br label %_ZN6icu_7712LocalPointerINS_25RelativeDateTimeFormatterEED2Ev.exit

.critedge:                                        ; preds = %12
  call void @_ZN6icu_776LocaleD1Ev(ptr noundef nonnull align 8 dereferenceable(217) %6) #20
  call void @llvm.lifetime.end.p0(i64 224, ptr nonnull %6) #20
  %.pre = load i32, ptr %4, align 4, !tbaa !13
  %17 = icmp slt i32 %.pre, 1
  br i1 %17, label %_ZN6icu_7712LocalPointerINS_25RelativeDateTimeFormatterEED2Ev.exit, label %22

18:                                               ; preds = %11
  %19 = landingpad { ptr, i32 }
          cleanup
  br label %26

20:                                               ; preds = %12
  %21 = landingpad { ptr, i32 }
          cleanup
  call void @_ZN6icu_776LocaleD1Ev(ptr noundef nonnull align 8 dereferenceable(217) %6) #20
  br label %26

22:                                               ; preds = %.critedge
  %23 = load ptr, ptr %10, align 8, !tbaa !15
  %24 = getelementptr inbounds nuw i8, ptr %23, i64 8
  %25 = load ptr, ptr %24, align 8
  call void %25(ptr noundef nonnull align 8 dereferenceable(272) %10) #20
  br label %_ZN6icu_7712LocalPointerINS_25RelativeDateTimeFormatterEED2Ev.exit

26:                                               ; preds = %20, %18
  %.pn = phi { ptr, i32 } [ %21, %20 ], [ %19, %18 ]
  call void @llvm.lifetime.end.p0(i64 224, ptr nonnull %6) #20
  call void @_ZN6icu_777UMemorydlEPv(ptr noundef nonnull %10) #20
  resume { ptr, i32 } %.pn

_ZN6icu_7712LocalPointerINS_25RelativeDateTimeFormatterEED2Ev.exit: ; preds = %16, %13, %.critedge, %22, %5
  %.026 = phi ptr [ null, %5 ], [ null, %22 ], [ %10, %.critedge ], [ null, %13 ], [ null, %16 ]
  ret ptr %.026
}